; ModuleID = 'bench/sdl/original/s_copysign.ll'
source_filename = "bench/sdl/original/s_copysign.ll"
target datalayout = "e-m:e-p270:32:32-p271:32:32-p272:64:64-i64:64-i128:128-f80:128-n8:16:32:64-S128"
target triple = "x86_64-pc-linux-gnu"

; Function Attrs: mustprogress nofree norecurse nosync nounwind willreturn memory(none) uwtable
define hidden noundef double @SDL_uclibc_copysign(double noundef %0, double noundef %1) local_unnamed_addr #0 {
  %3 = tail call double @llvm.copysign.f64(double %0, double %1)
  ret double %3
}

; Function Attrs: nocallback nofree nosync nounwind speculatable willreturn memory(none)
declare double @llvm.copysign.f64(double, double) #1


!llvm.module.flags = !{!0, !1, !2, !3}

!0 = !{i32 1, !"wchar_size", i32 4}
!1 = !{i32 8, !"PIC Level", i32 2}
!2 = !{i32 7, !"PIE Level", i32 2}
!3 = !{i32 7, !"uwtable", i32 2}
